; Function Attrs: nounwind uwtable
define internal ptr @test_PyTime_AsTimespec(ptr readnone captures(none) %0, ptr noundef %1) #0 {
  %3 = alloca ptr, align 8
  %4 = alloca i64, align 8
  %5 = alloca %struct.timespec, align 8
  call void @llvm.lifetime.start.p0(i64 8, ptr nonnull %3) #3
  %6 = call i32 (ptr, ptr, ...) @PyArg_ParseTuple(ptr noundef %1, ptr noundef nonnull @.str.14, ptr noundef nonnull %3) #3
  %.not = icmp eq i32 %6, 0
  br i1 %.not, label %23, label %7

7:                                                ; preds = %2
  call void @llvm.lifetime.start.p0(i64 8, ptr nonnull %4) #3
  %8 = load ptr, ptr %3, align 8, !tbaa !3
  %9 = call i32 @_PyTime_FromLong(ptr noundef nonnull %4, ptr noundef %8) #3
  %10 = icmp slt i32 %9, 0
  br i1 %10, label %22, label %11

11:                                               ; preds = %7
  call void @llvm.lifetime.start.p0(i64 16, ptr nonnull %5) #3
  %12 = load i64, ptr %4, align 8, !tbaa !10
  %13 = call i32 @_PyTime_AsTimespec(i64 noundef %12, ptr noundef nonnull %5) #3
  %14 = icmp eq i32 %13, -1
  br i1 %14, label %21, label %15

15:                                               ; preds = %11
  %16 = load i64, ptr %5, align 8, !tbaa !12
  %17 = call ptr @_PyLong_FromTime_t(i64 noundef %16) #3
  %18 = getelementptr inbounds nuw i8, ptr %5, i64 8
  %19 = load i64, ptr %18, align 8, !tbaa !14
  %20 = call ptr (ptr, ...) @Py_BuildValue(ptr noundef nonnull @.str.15, ptr noundef %17, i64 noundef %19) #3
  br label %21

21:                                               ; preds = %11, %15
  %.2 = phi ptr [ %20, %15 ], [ null, %11 ]
  call void @llvm.lifetime.end.p0(i64 16, ptr nonnull %5) #3
  br label %22

22:                                               ; preds = %7, %21
  %.1 = phi ptr [ %.2, %21 ], [ null, %7 ]
  call void @llvm.lifetime.end.p0(i64 8, ptr nonnull %4) #3
  br label %23

23:                                               ; preds = %2, %22
  %.0 = phi ptr [ %.1, %22 ], [ null, %2 ]
  call void @llvm.lifetime.end.p0(i64 8, ptr nonnull %3) #3
  ret ptr %.0
}